Certificate:
    Data:
        Version: 3 (0x2)
        Serial Number: 6 (0x6)
    Signature Algorithm: sha1WithRSAEncryption
        Issuer: C=NO, ST=Oslo, L=Oslo, O=SuperOffice AS, CN=SuperOffice Online Root CA/emailAddress=sdk@superoffice.com
        Validity
            Not Before: May 14 07:50:58 2013 GMT
            Not After : Apr 20 07:50:58 2113 GMT
        Subject: C=NO, ST=Oslo, L=Oslo, O=SuperOffice AS, CN=SuperOffice Online Production CA/emailAddress=sdk@superoffice.com
        Subject Public Key Info:
            Public Key Algorithm: rsaEncryption
                Public-Key: (2048 bit)
                Modulus:
                    00:ae:90:36:c8:11:a5:31:53:af:0a:44:58:ff:41:
                    4b:ad:58:48:02:73:60:47:0d:f2:e9:2b:c9:8f:c5:
                    aa:07:ee:02:a1:c9:e0:d8:a9:90:91:55:19:54:19:
                    d8:03:7b:82:e3:f3:6f:17:07:f1:cb:c4:9c:7b:85:
                    da:c9:1b:5f:c7:63:9c:29:5c:28:24:71:f8:9b:b4:
                    24:aa:d2:3e:a0:b3:f5:0e:13:c5:cc:56:c6:5e:fa:
                    cb:07:61:fb:5f:4e:c6:ea:9a:7f:31:06:22:2d:25:
                    5f:a4:95:58:23:94:a4:9f:d0:d5:23:66:ff:02:bc:
                    25:63:5f:34:64:3a:4f:2e:a0:35:df:f6:92:dd:75:
                    6e:d9:15:50:38:09:95:2b:da:05:7b:9c:fa:d0:3b:
                    f9:c8:e8:47:df:6e:3d:25:26:da:93:07:2a:95:76:
                    40:a4:30:42:51:9d:43:e1:24:f9:b2:51:2f:e0:20:
                    56:92:78:41:4a:c6:cf:f2:63:85:89:df:6d:60:f3:
                    fb:eb:4a:f4:9c:fd:71:f0:39:6c:7a:5e:17:7a:95:
                    06:c6:2c:bb:62:9d:ed:68:2e:39:dd:4a:01:7f:16:
                    46:51:82:50:c3:16:ae:85:f4:b2:60:e3:31:99:b2:
                    46:07:75:3c:22:4f:04:90:e5:75:6f:1f:1e:98:ca:
                    87:33
                Exponent: 65537 (0x10001)
        X509v3 extensions:
            X509v3 Subject Key Identifier: 
                EE:3D:F3:F3:C4:FF:66:BE:13:A8:24:36:25:FB:A1:F2:11:25:43:F1
            X509v3 Authority Key Identifier: 
                keyid:F5:D2:89:C3:4D:CB:24:2C:FA:37:32:A0:03:57:97:C9:8E:F2:16:E7

            X509v3 Basic Constraints: 
                CA:TRUE
    Signature Algorithm: sha1WithRSAEncryption
         27:ab:a4:4e:a3:d6:a8:5c:78:9f:03:98:25:52:b0:38:7d:df:
         41:bf:d5:40:bb:29:e4:0a:42:72:55:2a:18:c6:3b:ec:c1:44:
         27:b5:e7:d4:96:cd:4d:c0:85:c5:03:de:f0:ca:97:93:0b:f8:
         d8:00:16:db:d2:6f:d6:1c:c9:3c:11:41:10:35:87:7e:e4:ab:
         d6:fa:91:1b:1a:12:0c:6a:0f:cc:78:67:b3:94:65:24:04:b2:
         92:65:39:f2:b2:e3:74:16:7f:63:5f:b4:a8:d9:2c:1e:bd:53:
         48:de:70:21:fe:ff:fe:af:3a:3d:5f:7f:a0:0f:c2:f0:42:c6:
         e3:90:5f:36:60:90:fc:4b:e5:d3:4d:8e:f2:f3:96:64:b4:50:
         5b:92:08:66:48:b4:1e:bc:b1:b6:15:56:a4:e7:dd:bd:b4:bd:
         a1:e2:de:c5:93:d6:c4:5e:46:a5:f0:00:9b:0e:39:91:3c:7a:
         2f:f3:44:e8:5a:cf:5d:24:92:ba:b2:b7:f6:a6:f6:fa:4d:57:
         12:a8:dc:cc:e5:16:74:1f:a0:c8:82:c7:56:c5:1b:3e:0d:5b:
         b6:46:91:0c:35:ae:03:00:5e:2b:99:14:4f:6d:65:c8:5a:f6:
         e0:2e:62:f6:f0:3e:ba:f8:ee:3f:ec:21:5d:0d:d7:59:59:7c:
         18:a6:f5:06
-----BEGIN CERTIFICATE-----
MIID7zCCAtegAwIBAgIBBjANBgkqhkiG9w0BAQUFADCBjTELMAkGA1UEBhMCTk8x
DTALBgNVBAgMBE9zbG8xDTALBgNVBAcMBE9zbG8xFzAVBgNVBAoMDlN1cGVyT2Zm
aWNlIEFTMSMwIQYDVQQDDBpTdXBlck9mZmljZSBPbmxpbmUgUm9vdCBDQTEiMCAG
CSqGSIb3DQEJARYTc2RrQHN1cGVyb2ZmaWNlLmNvbTAgFw0xMzA1MTQwNzUwNTha
GA8yMTEzMDQyMDA3NTA1OFowgZMxCzAJBgNVBAYTAk5PMQ0wCwYDVQQIDARPc2xv
MQ0wCwYDVQQHDARPc2xvMRcwFQYDVQQKDA5TdXBlck9mZmljZSBBUzEpMCcGA1UE
AwwgU3VwZXJPZmZpY2UgT25saW5lIFByb2R1Y3Rpb24gQ0ExIjAgBgkqhkiG9w0B
CQEWE3Nka0BzdXBlcm9mZmljZS5jb20wggEiMA0GCSqGSIb3DQEBAQUAA4IBDwAw
ggEKAoIBAQCukDbIEaUxU68KRFj/QUutWEgCc2BHDfLpK8mPxaoH7gKhyeDYqZCR
VRlUGdgDe4Lj828XB/HLxJx7hdrJG1/HY5wpXCgkcfibtCSq0j6gs/UOE8XMVsZe
+ssHYftfTsbqmn8xBiItJV+klVgjlKSf0NUjZv8CvCVjXzRkOk8uoDXf9pLddW7Z
FVA4CZUr2gV7nPrQO/nI6Effbj0lJtqTByqVdkCkMEJRnUPhJPmyUS/gIFaSeEFK
xs/yY4WJ321g8/vrSvSc/XHwOWx6Xhd6lQbGLLtine1oLjndSgF/FkZRglDDFq6F
9LJg4zGZskYHdTwiTwSQ5XVvHx6YyoczAgMBAAGjUDBOMB0GA1UdDgQWBBTuPfPz
xP9mvhOoJDYl+6HyESVD8TAfBgNVHSMEGDAWgBT10onDTcskLPo3MqADV5fJjvIW
5zAMBgNVHRMEBTADAQH/MA0GCSqGSIb3DQEBBQUAA4IBAQAnq6ROo9aoXHifA5gl
UrA4fd9Bv9VAuynkCkJyVSoYxjvswUQntefUls1NwIXFA97wypeTC/jYABbb0m/W
HMk8EUEQNYd+5KvW+pEbGhIMag/MeGezlGUkBLKSZTnysuN0Fn9jX7So2SwevVNI
3nAh/v/+rzo9X3+gD8LwQsbjkF82YJD8S+XTTY7y85ZktFBbkghmSLQevLG2FVak
5929tL2h4t7Fk9bEXkal8ACbDjmRPHov80ToWs9dJJK6srf2pvb6TVcSqNzM5RZ0
H6DIgsdWxRs+DVu2RpEMNa4DAF4rmRRPbWXIWvbgLmL28D66+O4/7CFdDddZWXwY
pvUG
-----END CERTIFICATE-----
